target datalayout = "e-m:e-p270:32:32-p271:32:32-p272:64:64-i64:64-i128:128-f80:128-n8:16:32:64-S128"
target triple = "x86_64-pc-linux-gnu"

; Function Attrs: mustprogress nounwind uwtable
define internal noundef i64 @_ZN4llvm6objectL14resolveAArch64Emmmml(i64 noundef %0, i64 noundef %1, i64 noundef %2, i64 noundef %3, i64 noundef %4) #0 {
  %6 = alloca i64, align 8
  %7 = alloca i64, align 8
  %8 = alloca i64, align 8
  %9 = alloca i64, align 8
  %10 = alloca i64, align 8
  %11 = alloca i64, align 8
  store i64 %0, ptr %7, align 8
  store i64 %1, ptr %8, align 8
  store i64 %2, ptr %9, align 8
  store i64 %3, ptr %10, align 8
  store i64 %4, ptr %11, align 8
  %12 = load i64, ptr %7, align 8
  switch i64 %12, label %42 [
    i64 258, label %13
    i64 257, label %18
    i64 262, label %22
    i64 261, label %29
    i64 260, label %36
  ]

13:                                               ; preds = %5
  %14 = load i64, ptr %9, align 8
  %15 = load i64, ptr %11, align 8
  %16 = add i64 %14, %15
  %17 = and i64 %16, 4294967295
  store i64 %17, ptr %6, align 8
  br label %43

18:                                               ; preds = %5
  %19 = load i64, ptr %9, align 8
  %20 = load i64, ptr %11, align 8
  %21 = add i64 %19, %20
  store i64 %21, ptr %6, align 8
  br label %43

22:                                               ; preds = %5
  %23 = load i64, ptr %9, align 8
  %24 = load i64, ptr %11, align 8
  %25 = add i64 %23, %24
  %26 = load i64, ptr %8, align 8
  %27 = sub i64 %25, %26
  %28 = and i64 %27, 65535
  store i64 %28, ptr %6, align 8
  br label %43

29:                                               ; preds = %5
  %30 = load i64, ptr %9, align 8
  %31 = load i64, ptr %11, align 8
  %32 = add i64 %30, %31
  %33 = load i64, ptr %8, align 8
  %34 = sub i64 %32, %33
  %35 = and i64 %34, 4294967295
  store i64 %35, ptr %6, align 8
  br label %43

36:                                               ; preds = %5
  %37 = load i64, ptr %9, align 8
  %38 = load i64, ptr %11, align 8
  %39 = add i64 %37, %38
  %40 = load i64, ptr %8, align 8
  %41 = sub i64 %39, %40
  store i64 %41, ptr %6, align 8
  br label %43

42:                                               ; preds = %5
  unreachable

43:                                               ; preds = %36, %29, %22, %18, %13
  %44 = load i64, ptr %6, align 8
  ret i64 %44
}