; Function Attrs: mustprogress nofree norecurse nosync nounwind willreturn memory(none) uwtable
define internal noundef i64 @_ZN4llvm6objectL14resolveAArch64Emmmml(i64 noundef %0, i64 noundef %1, i64 noundef %2, i64 %3, i64 noundef %4) #1 {
  %6 = add i64 %4, %2
  switch i64 %0, label %17 [
    i64 258, label %7
    i64 257, label %18
    i64 262, label %9
    i64 261, label %12
    i64 260, label %15
  ]

7:                                                ; preds = %5
  %8 = and i64 %6, 4294967295
  br label %18

9:                                                ; preds = %5
  %10 = sub i64 %6, %1
  %11 = and i64 %10, 65535
  br label %18

12:                                               ; preds = %5
  %13 = sub i64 %6, %1
  %14 = and i64 %13, 4294967295
  br label %18

15:                                               ; preds = %5
  %16 = sub i64 %6, %1
  br label %18

17:                                               ; preds = %5
  unreachable

18:                                               ; preds = %5, %15, %12, %9, %7
  %.0 = phi i64 [ %16, %15 ], [ %14, %12 ], [ %11, %9 ], [ %8, %7 ], [ %6, %5 ]
  ret i64 %.0
}